; ModuleID = '31/1027.c'
source_filename = "31/1027.c"
target datalayout = "e-m:e-p270:32:32-p271:32:32-p272:64:64-i64:64-f80:128-n8:16:32:64-S128"
target triple = "x86_64-pc-linux-gnu"

%struct.student = type { [200 x i8], %struct.student* }

@n = dso_local global i32 0, align 4
@.str = private unnamed_addr constant [4 x i8] c"end\00", align 1

; Function Attrs: noinline nounwind uwtable
define dso_local %struct.student* @creat() #0 {
  %1 = alloca [200 x i8], align 16
  %2 = alloca %struct.student*, align 8
  %3 = alloca %struct.student*, align 8
  %4 = call noalias i8* @malloc(i64 100) #4
  %5 = bitcast i8* %4 to %struct.student*
  store %struct.student* %5, %struct.student** %2, align 8
  store %struct.student* %5, %struct.student** %3, align 8
  br label %6

6:                                                ; preds = %0, %32
  %7 = getelementptr inbounds [200 x i8], [200 x i8]* %1, i64 0, i64 0
  %8 = call i32 (i8*, ...) bitcast (i32 (...)* @gets to i32 (i8*, ...)*)(i8* %7)
  %9 = getelementptr inbounds [200 x i8], [200 x i8]* %1, i64 0, i64 0
  %10 = call i32 @strcmp(i8* %9, i8* getelementptr inbounds ([4 x i8], [4 x i8]* @.str, i64 0, i64 0)) #5
  %11 = icmp ne i32 %10, 0
  br i1 %11, label %13, label %12

12:                                               ; preds = %6
  br label %33

13:                                               ; preds = %6
  %14 = load i32, i32* @n, align 4
  %15 = icmp eq i32 %14, 0
  br i1 %15, label %16, label %19

16:                                               ; preds = %13
  %17 = load %struct.student*, %struct.student** %3, align 8
  %18 = getelementptr inbounds %struct.student, %struct.student* %17, i32 0, i32 1
  store %struct.student* null, %struct.student** %18, align 8
  store i32 1, i32* @n, align 4
  br label %23

19:                                               ; preds = %13
  %20 = load %struct.student*, %struct.student** %3, align 8
  %21 = load %struct.student*, %struct.student** %2, align 8
  %22 = getelementptr inbounds %struct.student, %struct.student* %21, i32 0, i32 1
  store %struct.student* %20, %struct.student** %22, align 8
  br label %23

23:                                               ; preds = %19, %16
  %24 = load %struct.student*, %struct.student** %2, align 8
  store %struct.student* %24, %struct.student** %3, align 8
  %25 = load %struct.student*, %struct.student** %2, align 8
  %26 = getelementptr inbounds %struct.student, %struct.student* %25, i32 0, i32 0
  %27 = getelementptr inbounds [200 x i8], [200 x i8]* %26, i64 0, i64 0
  %28 = getelementptr inbounds [200 x i8], [200 x i8]* %1, i64 0, i64 0
  %29 = call i8* @strcpy(i8* %27, i8* %28) #4
  %30 = call noalias i8* @malloc(i64 100) #4
  %31 = bitcast i8* %30 to %struct.student*
  store %struct.student* %31, %struct.student** %2, align 8
  br label %32

32:                                               ; preds = %23
  br label %6

33:                                               ; preds = %12
  %34 = load %struct.student*, %struct.student** %2, align 8
  %35 = bitcast %struct.student* %34 to i8*
  call void @free(i8* %35) #4
  %36 = load %struct.student*, %struct.student** %3, align 8
  ret %struct.student* %36
}

; Function Attrs: nounwind
declare dso_local noalias i8* @malloc(i64) #1

declare dso_local i32 @gets(...) #2

; Function Attrs: nounwind readonly
declare dso_local i32 @strcmp(i8*, i8*) #3

; Function Attrs: nounwind
declare dso_local i8* @strcpy(i8*, i8*) #1

; Function Attrs: nounwind
declare dso_local void @free(i8*) #1

; Function Attrs: noinline nounwind uwtable
define dso_local void @print(%struct.student* %0) #0 {
  %2 = alloca %struct.student*, align 8
  store %struct.student* %0, %struct.student** %2, align 8
  %3 = load %struct.student*, %struct.student** %2, align 8
  %4 = icmp ne %struct.student* %3, null
  br i1 %4, label %5, label %13

5:                                                ; preds = %1
  %6 = load %struct.student*, %struct.student** %2, align 8
  %7 = getelementptr inbounds %struct.student, %struct.student* %6, i32 0, i32 0
  %8 = getelementptr inbounds [200 x i8], [200 x i8]* %7, i64 0, i64 0
  %9 = call i32 @puts(i8* %8)
  %10 = load %struct.student*, %struct.student** %2, align 8
  %11 = getelementptr inbounds %struct.student, %struct.student* %10, i32 0, i32 1
  %12 = load %struct.student*, %struct.student** %11, align 8
  call void @print(%struct.student* %12)
  br label %13

13:                                               ; preds = %5, %1
  ret void
}

declare dso_local i32 @puts(i8*) #2

; Function Attrs: noinline nounwind uwtable
define dso_local i32 @main() #0 {
  %1 = alloca i32, align 4
  %2 = alloca %struct.student*, align 8
  store i32 0, i32* %1, align 4
  %3 = call %struct.student* @creat()
  store %struct.student* %3, %struct.student** %2, align 8
  %4 = load %struct.student*, %struct.student** %2, align 8
  call void @print(%struct.student* %4)
  ret i32 0
}


!llvm.module.flags = !{!0}
!llvm.ident = !{!1}

!0 = !{i32 1, !"wchar_size", i32 4}
!1 = !{!"clang version 10.0.0-4ubuntu1 "}
